; Function Attrs: nounwind uwtable
define i32 @pmix_bfrops_base_pack_coord(ptr noundef %0, ptr noundef %1, ptr noundef %2, i32 noundef %3, i16 noundef zeroext %4) local_unnamed_addr #0 {
  %6 = getelementptr inbounds nuw i8, ptr %0, i64 128
  %7 = getelementptr inbounds nuw i8, ptr %0, i64 152
  %8 = icmp sgt i32 %3, 0
  br i1 %8, label %.lr.ph.preheader, label %.thread

.lr.ph.preheader:                                 ; preds = %5
  %wide.trip.count = zext nneg i32 %3 to i64
  br label %.lr.ph

9:                                                ; preds = %37
  %indvars.iv.next = add nuw nsw i64 %indvars.iv, 1
  %exitcond.not = icmp eq i64 %indvars.iv.next, %wide.trip.count
  br i1 %exitcond.not, label %.thread, label %.lr.ph, !llvm.loop !103

.lr.ph:                                           ; preds = %.lr.ph.preheader, %9
  %indvars.iv = phi i64 [ 0, %.lr.ph.preheader ], [ %indvars.iv.next, %9 ]
  %10 = load i32, ptr %6, align 8, !tbaa !15
  %.not.i = icmp sgt i32 %10, 12
  br i1 %.not.i, label %pmix_pointer_array_get_item.exit, label %.thread, !prof !18

pmix_pointer_array_get_item.exit:                 ; preds = %.lr.ph
  %11 = load ptr, ptr %7, align 8, !tbaa !19
  %12 = getelementptr inbounds nuw i8, ptr %11, i64 96
  %13 = load ptr, ptr %12, align 8, !tbaa !20
  %14 = icmp eq ptr %13, null
  br i1 %14, label %.thread, label %15

15:                                               ; preds = %pmix_pointer_array_get_item.exit
  %16 = getelementptr inbounds nuw i8, ptr %13, i64 136
  %17 = load ptr, ptr %16, align 8, !tbaa !21
  %18 = getelementptr inbounds nuw %struct.pmix_coord, ptr %2, i64 %indvars.iv
  %19 = tail call i32 %17(ptr noundef nonnull %0, ptr noundef %1, ptr noundef %18, i32 noundef 1, i16 noundef zeroext 12) #8
  %.not = icmp eq i32 %19, 0
  br i1 %.not, label %20, label %.thread

20:                                               ; preds = %15
  %21 = load i32, ptr %6, align 8, !tbaa !15
  %.not.i40 = icmp sgt i32 %21, 4
  br i1 %.not.i40, label %pmix_pointer_array_get_item.exit42, label %.thread, !prof !18

pmix_pointer_array_get_item.exit42:               ; preds = %20
  %22 = load ptr, ptr %7, align 8, !tbaa !19
  %23 = getelementptr inbounds nuw i8, ptr %22, i64 32
  %24 = load ptr, ptr %23, align 8, !tbaa !20
  %25 = icmp eq ptr %24, null
  br i1 %25, label %.thread, label %26

26:                                               ; preds = %pmix_pointer_array_get_item.exit42
  %27 = getelementptr inbounds nuw i8, ptr %24, i64 136
  %28 = load ptr, ptr %27, align 8, !tbaa !21
  %29 = getelementptr inbounds nuw %struct.pmix_coord, ptr %2, i64 %indvars.iv, i32 2
  %30 = tail call i32 %28(ptr noundef nonnull %0, ptr noundef %1, ptr noundef nonnull %29, i32 noundef 1, i16 noundef zeroext 4) #8
  %.not38 = icmp eq i32 %30, 0
  br i1 %.not38, label %31, label %.thread

31:                                               ; preds = %26
  %32 = load i32, ptr %6, align 8, !tbaa !15
  %.not.i43 = icmp sgt i32 %32, 14
  br i1 %.not.i43, label %pmix_pointer_array_get_item.exit45, label %.thread, !prof !18

pmix_pointer_array_get_item.exit45:               ; preds = %31
  %33 = load ptr, ptr %7, align 8, !tbaa !19
  %34 = getelementptr inbounds nuw i8, ptr %33, i64 112
  %35 = load ptr, ptr %34, align 8, !tbaa !20
  %36 = icmp eq ptr %35, null
  br i1 %36, label %.thread, label %37

37:                                               ; preds = %pmix_pointer_array_get_item.exit45
  %38 = getelementptr inbounds nuw i8, ptr %35, i64 136
  %39 = load ptr, ptr %38, align 8, !tbaa !21
  %40 = getelementptr inbounds nuw i8, ptr %18, i64 8
  %41 = load ptr, ptr %40, align 8, !tbaa !104
  %42 = getelementptr inbounds nuw i8, ptr %18, i64 16
  %43 = load i64, ptr %42, align 8, !tbaa !107
  %44 = trunc i64 %43 to i32
  %45 = tail call i32 %39(ptr noundef nonnull %0, ptr noundef %1, ptr noundef %41, i32 noundef %44, i16 noundef zeroext 14) #8
  %.not39 = icmp eq i32 %45, 0
  br i1 %.not39, label %9, label %.thread

.thread:                                          ; preds = %15, %26, %37, %9, %pmix_pointer_array_get_item.exit, %.lr.ph, %pmix_pointer_array_get_item.exit42, %20, %pmix_pointer_array_get_item.exit45, %31, %5
  %.0 = phi i32 [ 0, %5 ], [ -16, %31 ], [ -16, %pmix_pointer_array_get_item.exit45 ], [ -16, %20 ], [ -16, %pmix_pointer_array_get_item.exit42 ], [ -16, %.lr.ph ], [ -16, %pmix_pointer_array_get_item.exit ], [ 0, %9 ], [ %45, %37 ], [ %30, %26 ], [ %19, %15 ]
  ret i32 %.0
}